target datalayout = "e-m:e-p270:32:32-p271:32:32-p272:64:64-i64:64-i128:128-f80:128-n8:16:32:64-S128"
target triple = "x86_64-pc-linux-gnu"

; Function Attrs: mustprogress nounwind uwtable
define noundef i32 @_ZN9MeshModel5io2mmEi(i32 noundef %0) #4 align 2 {
  %2 = alloca i32, align 4
  %3 = alloca i32, align 4
  store i32 %0, ptr %3, align 4
  %4 = load i32, ptr %3, align 4
  switch i32 %4, label %22 [
    i32 0, label %5
    i32 1, label %6
    i32 4, label %7
    i32 2, label %8
    i32 8, label %9
    i32 16, label %10
    i32 32, label %11
    i32 65536, label %12
    i32 64, label %13
    i32 128, label %14
    i32 256, label %15
    i32 512, label %16
    i32 1024, label %17
    i32 4096, label %18
    i32 2048, label %19
    i32 16384, label %20
    i32 131072, label %21
  ]

5:                                                ; preds = %1
  store i32 0, ptr %2, align 4
  br label %23

6:                                                ; preds = %1
  store i32 1, ptr %2, align 4
  br label %23

7:                                                ; preds = %1
  store i32 8, ptr %2, align 4
  br label %23

8:                                                ; preds = %1
  store i32 4, ptr %2, align 4
  br label %23

9:                                                ; preds = %1
  store i32 16, ptr %2, align 4
  br label %23

10:                                               ; preds = %1
  store i32 2, ptr %2, align 4
  br label %23

11:                                               ; preds = %1
  store i32 1024, ptr %2, align 4
  br label %23

12:                                               ; preds = %1
  store i32 512, ptr %2, align 4
  br label %23

13:                                               ; preds = %1
  store i32 4096, ptr %2, align 4
  br label %23

14:                                               ; preds = %1
  store i32 16384, ptr %2, align 4
  br label %23

15:                                               ; preds = %1
  store i32 32768, ptr %2, align 4
  br label %23

16:                                               ; preds = %1
  store i32 65536, ptr %2, align 4
  br label %23

17:                                               ; preds = %1
  store i32 8192, ptr %2, align 4
  br label %23

18:                                               ; preds = %1
  store i32 2097152, ptr %2, align 4
  br label %23

19:                                               ; preds = %1
  store i32 8388608, ptr %2, align 4
  br label %23

20:                                               ; preds = %1
  store i32 4194304, ptr %2, align 4
  br label %23

21:                                               ; preds = %1
  store i32 1073741824, ptr %2, align 4
  br label %23

22:                                               ; preds = %1
  store i32 0, ptr %2, align 4
  br label %23

23:                                               ; preds = %22, %21, %20, %19, %18, %17, %16, %15, %14, %13, %12, %11, %10, %9, %8, %7, %6, %5
  %24 = load i32, ptr %2, align 4
  ret i32 %24
}